; Function Attrs: nounwind uwtable
define range(i32 -128, 128) i32 @glfwGetMouseButton(ptr noundef captures(none) %0, i32 noundef %1) local_unnamed_addr #0 {
  %3 = load i32, ptr @_glfw, align 8, !tbaa !170
  %.not = icmp eq i32 %3, 0
  br i1 %.not, label %4, label %5

4:                                                ; preds = %2
  tail call void (i32, ptr, ...) @_glfwInputError(i32 noundef 65537, ptr noundef null) #12
  br label %16

5:                                                ; preds = %2
  %or.cond = icmp ugt i32 %1, 7
  br i1 %or.cond, label %6, label %7

6:                                                ; preds = %5
  tail call void (i32, ptr, ...) @_glfwInputError(i32 noundef 65539, ptr noundef nonnull @.str.399, i32 noundef %1) #12
  br label %16

7:                                                ; preds = %5
  %8 = getelementptr inbounds nuw i8, ptr %0, i64 144
  %9 = zext nneg i32 %1 to i64
  %10 = getelementptr inbounds nuw [8 x i8], ptr %8, i64 0, i64 %9
  %11 = load i8, ptr %10, align 1, !tbaa !3
  %12 = icmp eq i8 %11, 3
  br i1 %12, label %13, label %14

13:                                               ; preds = %7
  store i8 0, ptr %10, align 1, !tbaa !3
  br label %16

14:                                               ; preds = %7
  %15 = sext i8 %11 to i32
  br label %16

16:                                               ; preds = %14, %13, %6, %4
  %.0 = phi i32 [ 0, %6 ], [ 1, %13 ], [ %15, %14 ], [ 0, %4 ]
  ret i32 %.0
}